target datalayout = "e-m:e-p270:32:32-p271:32:32-p272:64:64-i64:64-i128:128-f80:128-n8:16:32:64-S128"
target triple = "x86_64-pc-linux-gnu"

%struct.BEValue = type { i8, i32, ptr, ptr, ptr }
%struct.Type_ = type { i32, ptr, ptr, ptr, %union.anon.97, ptr, ptr, %union.anon.99 }
%union.anon.97 = type { ptr }
%union.anon.99 = type { %struct.TypeFunction }
%struct.TypeFunction = type { ptr, ptr, ptr }
%struct.TypeArray = type { ptr, i32 }

@.str.7 = private unnamed_addr constant [6 x i8] c".temp\00", align 1

; Function Attrs: nounwind uwtable
define dso_local void @llvm_emit_subarray_to_vec_array_cast(ptr noundef %0, ptr noundef %1, ptr noundef %2, ptr noundef %3) #0 {
  %5 = alloca ptr, align 8
  %6 = alloca ptr, align 8
  %7 = alloca ptr, align 8
  %8 = alloca ptr, align 8
  %9 = alloca %struct.BEValue, align 8
  %10 = alloca ptr, align 8
  %11 = alloca i32, align 4
  %12 = alloca ptr, align 8
  %13 = alloca i32, align 4
  %14 = alloca ptr, align 8
  %15 = alloca i32, align 4
  store ptr %0, ptr %5, align 8
  store ptr %1, ptr %6, align 8
  store ptr %2, ptr %7, align 8
  store ptr %3, ptr %8, align 8
  %16 = load ptr, ptr %8, align 8
  %17 = call ptr @type_lowering(ptr noundef %16)
  %18 = getelementptr inbounds %struct.Type_, ptr %17, i32 0, i32 7
  %19 = getelementptr inbounds %struct.TypeArray, ptr %18, i32 0, i32 0
  %20 = load ptr, ptr %19, align 8
  store ptr %20, ptr %10, align 8
  %21 = load ptr, ptr %10, align 8
  %22 = call i32 @type_abi_alignment(ptr noundef %21)
  store i32 %22, ptr %11, align 4
  %23 = load ptr, ptr %5, align 8
  %24 = load ptr, ptr %6, align 8
  call void @llvm_emit_subarray_pointer(ptr noundef %23, ptr noundef %24, ptr noundef %9)
  %25 = load ptr, ptr %5, align 8
  call void @llvm_value_rvalue(ptr noundef %25, ptr noundef %9)
  %26 = load ptr, ptr %5, align 8
  %27 = load ptr, ptr %7, align 8
  %28 = call ptr @llvm_get_type(ptr noundef %26, ptr noundef %27)
  store ptr %28, ptr %12, align 8
  %29 = load ptr, ptr %5, align 8
  %30 = load ptr, ptr %12, align 8
  %31 = call i32 @llvm_abi_alignment(ptr noundef %29, ptr noundef %30)
  store i32 %31, ptr %13, align 4
  %32 = load ptr, ptr %5, align 8
  %33 = load ptr, ptr %12, align 8
  %34 = load i32, ptr %13, align 4
  %35 = call ptr @llvm_emit_alloca(ptr noundef %32, ptr noundef %33, i32 noundef %34, ptr noundef @.str.7)
  store ptr %35, ptr %14, align 8
  %36 = load ptr, ptr %12, align 8
  %37 = call i32 @LLVMGetTypeKind(ptr noundef %36)
  %38 = icmp eq i32 %37, 13
  br i1 %38, label %39, label %42

39:                                               ; preds = %4
  %40 = load ptr, ptr %12, align 8
  %41 = call i32 @LLVMGetVectorSize(ptr noundef %40)
  br label %45

42:                                               ; preds = %4
  %43 = load ptr, ptr %12, align 8
  %44 = call i32 @LLVMGetArrayLength(ptr noundef %43)
  br label %45

45:                                               ; preds = %42, %39
  %46 = phi i32 [ %41, %39 ], [ %44, %42 ]
  store i32 %46, ptr %15, align 4
  %47 = load ptr, ptr %5, align 8
  %48 = load ptr, ptr %14, align 8
  %49 = load i32, ptr %13, align 4
  %50 = getelementptr inbounds %struct.BEValue, ptr %9, i32 0, i32 3
  %51 = load ptr, ptr %50, align 8
  %52 = load i32, ptr %11, align 4
  %53 = load i32, ptr %15, align 4
  %54 = zext i32 %53 to i64
  %55 = call ptr @llvm_emit_memcpy(ptr noundef %47, ptr noundef %48, i32 noundef %49, ptr noundef %51, i32 noundef %52, i64 noundef %54)
  %56 = load ptr, ptr %6, align 8
  %57 = load ptr, ptr %14, align 8
  %58 = load ptr, ptr %7, align 8
  %59 = load i32, ptr %13, align 4
  call void @llvm_value_set_address(ptr noundef %56, ptr noundef %57, ptr noundef %58, i32 noundef %59)
  ret void
}