; Function Attrs: nounwind uwtable
define dso_local void @llvm_emit_subarray_to_vec_array_cast(ptr noundef %0, ptr noundef %1, ptr noundef %2, ptr nocapture noundef readonly %3) local_unnamed_addr #0 {
  %5 = alloca %struct.BEValue, align 8
  %6 = tail call fastcc ptr @type_lowering(ptr noundef %3)
  %7 = getelementptr inbounds i8, ptr %6, i64 56
  %8 = load ptr, ptr %7, align 8
  %9 = tail call i32 @type_abi_alignment(ptr noundef %8) #10
  call void @llvm_emit_subarray_pointer(ptr noundef %0, ptr noundef %1, ptr noundef nonnull %5)
  call void @llvm_value_rvalue(ptr noundef %0, ptr noundef nonnull %5) #10
  %10 = call ptr @llvm_get_type(ptr noundef %0, ptr noundef %2) #10
  %11 = call i32 @llvm_abi_alignment(ptr noundef %0, ptr noundef %10) #10
  %12 = call ptr @llvm_emit_alloca(ptr noundef %0, ptr noundef %10, i32 noundef %11, ptr noundef nonnull @.str.7) #10
  %13 = call i32 @LLVMGetTypeKind(ptr noundef %10) #10
  %14 = icmp eq i32 %13, 13
  br i1 %14, label %15, label %17

15:                                               ; preds = %4
  %16 = call i32 @LLVMGetVectorSize(ptr noundef %10) #10
  br label %19

17:                                               ; preds = %4
  %18 = call i32 @LLVMGetArrayLength(ptr noundef %10) #10
  br label %19

19:                                               ; preds = %17, %15
  %20 = phi i32 [ %16, %15 ], [ %18, %17 ]
  %21 = getelementptr inbounds i8, ptr %5, i64 16
  %22 = load ptr, ptr %21, align 8
  %23 = zext i32 %20 to i64
  %24 = call ptr @llvm_emit_memcpy(ptr noundef %0, ptr noundef %12, i32 noundef %11, ptr noundef %22, i32 noundef %9, i64 noundef %23) #10
  call void @llvm_value_set_address(ptr noundef %1, ptr noundef %12, ptr noundef %2, i32 noundef %11) #10
  ret void
}